target datalayout = "e-m:e-p270:32:32-p271:32:32-p272:64:64-i64:64-i128:128-f80:128-n8:16:32:64-S128"
target triple = "x86_64-pc-linux-gnu"

%struct.uv_handle_s = type { ptr, ptr, i32, ptr, [2 x ptr], %union.anon.0, ptr, i32 }
%union.anon.0 = type { [4 x ptr] }
%struct.uv_loop_s = type { ptr, i32, [2 x ptr], %union.anon.1, ptr, i32, i64, i32, [2 x ptr], [2 x ptr], ptr, i32, i32, [2 x ptr], %union.pthread_mutex_t, %struct.uv_async_s, %union.pthread_rwlock_t, ptr, [2 x ptr], [2 x ptr], [2 x ptr], [2 x ptr], [2 x ptr], ptr, %struct.uv__io_s, i32, %struct.anon, i64, i64, [2 x i32], %struct.uv__io_s, %struct.uv_signal_s, i32, %struct.uv__io_s, ptr, i32 }
%union.anon.1 = type { ptr }
%union.pthread_mutex_t = type { %struct.__pthread_mutex_s }
%struct.__pthread_mutex_s = type { i32, i32, i32, i32, i32, i16, i16, %struct.__pthread_internal_list }
%struct.__pthread_internal_list = type { ptr, ptr }
%struct.uv_async_s = type { ptr, ptr, i32, ptr, [2 x ptr], %union.anon.2, ptr, i32, ptr, [2 x ptr], i32 }
%union.anon.2 = type { [4 x ptr] }
%union.pthread_rwlock_t = type { %struct.__pthread_rwlock_arch_t }
%struct.__pthread_rwlock_arch_t = type { i32, i32, i32, i32, i32, i32, i32, i32, i8, [7 x i8], i64, i32 }
%struct.anon = type { ptr, i32 }
%struct.uv_signal_s = type { ptr, ptr, i32, ptr, [2 x ptr], %union.anon.3, ptr, i32, ptr, i32, %struct.anon.4, i32, i32 }
%union.anon.3 = type { [4 x ptr] }
%struct.anon.4 = type { ptr, ptr, ptr, i32 }
%struct.uv__io_s = type { ptr, [2 x ptr], [2 x ptr], i32, i32, i32 }
%struct.uv_fs_poll_s = type { ptr, ptr, i32, ptr, [2 x ptr], %union.anon, ptr, i32, ptr }
%union.anon = type { [4 x ptr] }

; Function Attrs: nounwind uwtable
define dso_local i32 @uv_fs_poll_init(ptr noundef %0, ptr noundef %1) #0 {
  %3 = alloca ptr, align 8
  %4 = alloca ptr, align 8
  store ptr %0, ptr %3, align 8, !tbaa !4
  store ptr %1, ptr %4, align 8, !tbaa !9
  br label %5

5:                                                ; preds = %2
  %6 = load ptr, ptr %3, align 8, !tbaa !4
  %7 = load ptr, ptr %4, align 8, !tbaa !9
  %8 = getelementptr inbounds nuw %struct.uv_handle_s, ptr %7, i32 0, i32 1
  store ptr %6, ptr %8, align 8, !tbaa !11
  %9 = load ptr, ptr %4, align 8, !tbaa !9
  %10 = getelementptr inbounds nuw %struct.uv_handle_s, ptr %9, i32 0, i32 2
  store i32 4, ptr %10, align 8, !tbaa !15
  %11 = load ptr, ptr %4, align 8, !tbaa !9
  %12 = getelementptr inbounds nuw %struct.uv_handle_s, ptr %11, i32 0, i32 7
  store i32 8, ptr %12, align 8, !tbaa !16
  br label %13

13:                                               ; preds = %5
  %14 = load ptr, ptr %3, align 8, !tbaa !4
  %15 = getelementptr inbounds nuw %struct.uv_loop_s, ptr %14, i32 0, i32 2
  %16 = load ptr, ptr %4, align 8, !tbaa !9
  %17 = getelementptr inbounds nuw %struct.uv_handle_s, ptr %16, i32 0, i32 4
  %18 = getelementptr inbounds [2 x ptr], ptr %17, i64 0, i64 0
  store ptr %15, ptr %18, align 8, !tbaa !17
  %19 = load ptr, ptr %3, align 8, !tbaa !4
  %20 = getelementptr inbounds nuw %struct.uv_loop_s, ptr %19, i32 0, i32 2
  %21 = getelementptr inbounds [2 x ptr], ptr %20, i64 0, i64 1
  %22 = load ptr, ptr %21, align 8, !tbaa !17
  %23 = load ptr, ptr %4, align 8, !tbaa !9
  %24 = getelementptr inbounds nuw %struct.uv_handle_s, ptr %23, i32 0, i32 4
  %25 = getelementptr inbounds [2 x ptr], ptr %24, i64 0, i64 1
  store ptr %22, ptr %25, align 8, !tbaa !17
  %26 = load ptr, ptr %4, align 8, !tbaa !9
  %27 = getelementptr inbounds nuw %struct.uv_handle_s, ptr %26, i32 0, i32 4
  %28 = load ptr, ptr %4, align 8, !tbaa !9
  %29 = getelementptr inbounds nuw %struct.uv_handle_s, ptr %28, i32 0, i32 4
  %30 = getelementptr inbounds [2 x ptr], ptr %29, i64 0, i64 1
  %31 = load ptr, ptr %30, align 8, !tbaa !17
  %32 = getelementptr inbounds [2 x ptr], ptr %31, i64 0, i64 0
  store ptr %27, ptr %32, align 8, !tbaa !17
  %33 = load ptr, ptr %4, align 8, !tbaa !9
  %34 = getelementptr inbounds nuw %struct.uv_handle_s, ptr %33, i32 0, i32 4
  %35 = load ptr, ptr %3, align 8, !tbaa !4
  %36 = getelementptr inbounds nuw %struct.uv_loop_s, ptr %35, i32 0, i32 2
  %37 = getelementptr inbounds [2 x ptr], ptr %36, i64 0, i64 1
  store ptr %34, ptr %37, align 8, !tbaa !17
  br label %38

38:                                               ; preds = %13
  %39 = load ptr, ptr %4, align 8, !tbaa !9
  %40 = getelementptr inbounds nuw %struct.uv_handle_s, ptr %39, i32 0, i32 6
  store ptr null, ptr %40, align 8, !tbaa !18
  br label %41

41:                                               ; preds = %38
  %42 = load ptr, ptr %4, align 8, !tbaa !9
  %43 = getelementptr inbounds nuw %struct.uv_fs_poll_s, ptr %42, i32 0, i32 8
  store ptr null, ptr %43, align 8, !tbaa !19
  ret i32 0
}